; ModuleID = '9/677.c'
source_filename = "9/677.c"
target datalayout = "e-m:e-p270:32:32-p271:32:32-p272:64:64-i64:64-f80:128-n8:16:32:64-S128"
target triple = "x86_64-pc-linux-gnu"

%struct.person = type { [10 x i8], i32 }

@.str = private unnamed_addr constant [3 x i8] c"%d\00", align 1
@.str.1 = private unnamed_addr constant [6 x i8] c"%s %d\00", align 1
@per = common dso_local global [100 x %struct.person] zeroinitializer, align 16
@.str.2 = private unnamed_addr constant [4 x i8] c"%s\0A\00", align 1
@.str.3 = private unnamed_addr constant [3 x i8] c"%s\00", align 1

; Function Attrs: noinline nounwind uwtable
define dso_local i32 @main() #0 {
  %1 = alloca i32, align 4
  %2 = alloca i32, align 4
  %3 = alloca i32, align 4
  %4 = alloca i32, align 4
  %5 = alloca i32, align 4
  %6 = alloca [100 x i32], align 16
  %7 = alloca i32, align 4
  %8 = alloca i32, align 4
  %9 = alloca [100 x [10 x i8]], align 16
  %10 = alloca [10 x i8], align 1
  store i32 0, i32* %1, align 4
  store i32 0, i32* %5, align 4
  %11 = bitcast [100 x i32]* %6 to i8*
  call void @llvm.memset.p0i8.i64(i8* align 16 %11, i8 0, i64 400, i1 false)
  store i32 0, i32* %7, align 4
  %12 = bitcast [100 x [10 x i8]]* %9 to i8*
  call void @llvm.memset.p0i8.i64(i8* align 16 %12, i8 0, i64 1000, i1 false)
  %13 = bitcast [10 x i8]* %10 to i8*
  call void @llvm.memset.p0i8.i64(i8* align 1 %13, i8 0, i64 10, i1 false)
  %14 = call i32 (i8*, ...) @__isoc99_scanf(i8* getelementptr inbounds ([3 x i8], [3 x i8]* @.str, i64 0, i64 0), i32* %3)
  store i32 0, i32* %2, align 4
  br label %15

15:                                               ; preds = %30, %0
  %16 = load i32, i32* %2, align 4
  %17 = load i32, i32* %3, align 4
  %18 = icmp slt i32 %16, %17
  br i1 %18, label %19, label %33

19:                                               ; preds = %15
  %20 = load i32, i32* %2, align 4
  %21 = sext i32 %20 to i64
  %22 = getelementptr inbounds [100 x %struct.person], [100 x %struct.person]* @per, i64 0, i64 %21
  %23 = getelementptr inbounds %struct.person, %struct.person* %22, i32 0, i32 0
  %24 = getelementptr inbounds [10 x i8], [10 x i8]* %23, i64 0, i64 0
  %25 = load i32, i32* %2, align 4
  %26 = sext i32 %25 to i64
  %27 = getelementptr inbounds [100 x %struct.person], [100 x %struct.person]* @per, i64 0, i64 %26
  %28 = getelementptr inbounds %struct.person, %struct.person* %27, i32 0, i32 1
  %29 = call i32 (i8*, ...) @__isoc99_scanf(i8* getelementptr inbounds ([6 x i8], [6 x i8]* @.str.1, i64 0, i64 0), i8* %24, i32* %28)
  br label %30

30:                                               ; preds = %19
  %31 = load i32, i32* %2, align 4
  %32 = add nsw i32 %31, 1
  store i32 %32, i32* %2, align 4
  br label %15

33:                                               ; preds = %15
  store i32 0, i32* %2, align 4
  br label %34

34:                                               ; preds = %69, %33
  %35 = load i32, i32* %2, align 4
  %36 = load i32, i32* %3, align 4
  %37 = icmp slt i32 %35, %36
  br i1 %37, label %38, label %72

38:                                               ; preds = %34
  %39 = load i32, i32* %2, align 4
  %40 = sext i32 %39 to i64
  %41 = getelementptr inbounds [100 x %struct.person], [100 x %struct.person]* @per, i64 0, i64 %40
  %42 = getelementptr inbounds %struct.person, %struct.person* %41, i32 0, i32 1
  %43 = load i32, i32* %42, align 4
  %44 = icmp sge i32 %43, 60
  br i1 %44, label %45, label %68

45:                                               ; preds = %38
  %46 = load i32, i32* %2, align 4
  %47 = sext i32 %46 to i64
  %48 = getelementptr inbounds [100 x %struct.person], [100 x %struct.person]* @per, i64 0, i64 %47
  %49 = getelementptr inbounds %struct.person, %struct.person* %48, i32 0, i32 1
  %50 = load i32, i32* %49, align 4
  %51 = load i32, i32* %5, align 4
  %52 = sext i32 %51 to i64
  %53 = getelementptr inbounds [100 x i32], [100 x i32]* %6, i64 0, i64 %52
  store i32 %50, i32* %53, align 4
  %54 = load i32, i32* %5, align 4
  %55 = sext i32 %54 to i64
  %56 = getelementptr inbounds [100 x [10 x i8]], [100 x [10 x i8]]* %9, i64 0, i64 %55
  %57 = getelementptr inbounds [10 x i8], [10 x i8]* %56, i64 0, i64 0
  %58 = load i32, i32* %2, align 4
  %59 = sext i32 %58 to i64
  %60 = getelementptr inbounds [100 x %struct.person], [100 x %struct.person]* @per, i64 0, i64 %59
  %61 = getelementptr inbounds %struct.person, %struct.person* %60, i32 0, i32 0
  %62 = getelementptr inbounds [10 x i8], [10 x i8]* %61, i64 0, i64 0
  %63 = call i8* @strcpy(i8* %57, i8* %62) #4
  %64 = load i32, i32* %5, align 4
  %65 = add nsw i32 %64, 1
  store i32 %65, i32* %5, align 4
  %66 = load i32, i32* %7, align 4
  %67 = add nsw i32 %66, 1
  store i32 %67, i32* %7, align 4
  br label %68

68:                                               ; preds = %45, %38
  br label %69

69:                                               ; preds = %68
  %70 = load i32, i32* %2, align 4
  %71 = add nsw i32 %70, 1
  store i32 %71, i32* %2, align 4
  br label %34

72:                                               ; preds = %34
  store i32 0, i32* %4, align 4
  br label %73

73:                                               ; preds = %141, %72
  %74 = load i32, i32* %4, align 4
  %75 = load i32, i32* %7, align 4
  %76 = icmp slt i32 %74, %75
  br i1 %76, label %77, label %144

77:                                               ; preds = %73
  store i32 0, i32* %5, align 4
  br label %78

78:                                               ; preds = %137, %77
  %79 = load i32, i32* %5, align 4
  %80 = load i32, i32* %7, align 4
  %81 = load i32, i32* %4, align 4
  %82 = sub nsw i32 %80, %81
  %83 = icmp slt i32 %79, %82
  br i1 %83, label %84, label %140

84:                                               ; preds = %78
  %85 = load i32, i32* %5, align 4
  %86 = sext i32 %85 to i64
  %87 = getelementptr inbounds [100 x i32], [100 x i32]* %6, i64 0, i64 %86
  %88 = load i32, i32* %87, align 4
  %89 = load i32, i32* %5, align 4
  %90 = add nsw i32 %89, 1
  %91 = sext i32 %90 to i64
  %92 = getelementptr inbounds [100 x i32], [100 x i32]* %6, i64 0, i64 %91
  %93 = load i32, i32* %92, align 4
  %94 = icmp slt i32 %88, %93
  br i1 %94, label %95, label %136

95:                                               ; preds = %84
  %96 = load i32, i32* %5, align 4
  %97 = sext i32 %96 to i64
  %98 = getelementptr inbounds [100 x i32], [100 x i32]* %6, i64 0, i64 %97
  %99 = load i32, i32* %98, align 4
  store i32 %99, i32* %8, align 4
  %100 = load i32, i32* %5, align 4
  %101 = add nsw i32 %100, 1
  %102 = sext i32 %101 to i64
  %103 = getelementptr inbounds [100 x i32], [100 x i32]* %6, i64 0, i64 %102
  %104 = load i32, i32* %103, align 4
  %105 = load i32, i32* %5, align 4
  %106 = sext i32 %105 to i64
  %107 = getelementptr inbounds [100 x i32], [100 x i32]* %6, i64 0, i64 %106
  store i32 %104, i32* %107, align 4
  %108 = load i32, i32* %8, align 4
  %109 = load i32, i32* %5, align 4
  %110 = add nsw i32 %109, 1
  %111 = sext i32 %110 to i64
  %112 = getelementptr inbounds [100 x i32], [100 x i32]* %6, i64 0, i64 %111
  store i32 %108, i32* %112, align 4
  %113 = getelementptr inbounds [10 x i8], [10 x i8]* %10, i64 0, i64 0
  %114 = load i32, i32* %5, align 4
  %115 = sext i32 %114 to i64
  %116 = getelementptr inbounds [100 x [10 x i8]], [100 x [10 x i8]]* %9, i64 0, i64 %115
  %117 = getelementptr inbounds [10 x i8], [10 x i8]* %116, i64 0, i64 0
  %118 = call i8* @strcpy(i8* %113, i8* %117) #4
  %119 = load i32, i32* %5, align 4
  %120 = sext i32 %119 to i64
  %121 = getelementptr inbounds [100 x [10 x i8]], [100 x [10 x i8]]* %9, i64 0, i64 %120
  %122 = getelementptr inbounds [10 x i8], [10 x i8]* %121, i64 0, i64 0
  %123 = load i32, i32* %5, align 4
  %124 = add nsw i32 %123, 1
  %125 = sext i32 %124 to i64
  %126 = getelementptr inbounds [100 x [10 x i8]], [100 x [10 x i8]]* %9, i64 0, i64 %125
  %127 = getelementptr inbounds [10 x i8], [10 x i8]* %126, i64 0, i64 0
  %128 = call i8* @strcpy(i8* %122, i8* %127) #4
  %129 = load i32, i32* %5, align 4
  %130 = add nsw i32 %129, 1
  %131 = sext i32 %130 to i64
  %132 = getelementptr inbounds [100 x [10 x i8]], [100 x [10 x i8]]* %9, i64 0, i64 %131
  %133 = getelementptr inbounds [10 x i8], [10 x i8]* %132, i64 0, i64 0
  %134 = getelementptr inbounds [10 x i8], [10 x i8]* %10, i64 0, i64 0
  %135 = call i8* @strcpy(i8* %133, i8* %134) #4
  br label %136

136:                                              ; preds = %95, %84
  br label %137

137:                                              ; preds = %136
  %138 = load i32, i32* %5, align 4
  %139 = add nsw i32 %138, 1
  store i32 %139, i32* %5, align 4
  br label %78

140:                                              ; preds = %78
  br label %141

141:                                              ; preds = %140
  %142 = load i32, i32* %4, align 4
  %143 = add nsw i32 %142, 1
  store i32 %143, i32* %4, align 4
  br label %73

144:                                              ; preds = %73
  store i32 0, i32* %2, align 4
  %145 = load i32, i32* %7, align 4
  store i32 %145, i32* %5, align 4
  br label %146

146:                                              ; preds = %181, %144
  %147 = load i32, i32* %2, align 4
  %148 = load i32, i32* %3, align 4
  %149 = icmp slt i32 %147, %148
  br i1 %149, label %150, label %184

150:                                              ; preds = %146
  %151 = load i32, i32* %2, align 4
  %152 = sext i32 %151 to i64
  %153 = getelementptr inbounds [100 x %struct.person], [100 x %struct.person]* @per, i64 0, i64 %152
  %154 = getelementptr inbounds %struct.person, %struct.person* %153, i32 0, i32 1
  %155 = load i32, i32* %154, align 4
  %156 = icmp slt i32 %155, 60
  br i1 %156, label %157, label %180

157:                                              ; preds = %150
  %158 = load i32, i32* %2, align 4
  %159 = sext i32 %158 to i64
  %160 = getelementptr inbounds [100 x %struct.person], [100 x %struct.person]* @per, i64 0, i64 %159
  %161 = getelementptr inbounds %struct.person, %struct.person* %160, i32 0, i32 1
  %162 = load i32, i32* %161, align 4
  %163 = load i32, i32* %5, align 4
  %164 = sext i32 %163 to i64
  %165 = getelementptr inbounds [100 x i32], [100 x i32]* %6, i64 0, i64 %164
  store i32 %162, i32* %165, align 4
  %166 = load i32, i32* %5, align 4
  %167 = sext i32 %166 to i64
  %168 = getelementptr inbounds [100 x [10 x i8]], [100 x [10 x i8]]* %9, i64 0, i64 %167
  %169 = getelementptr inbounds [10 x i8], [10 x i8]* %168, i64 0, i64 0
  %170 = load i32, i32* %2, align 4
  %171 = sext i32 %170 to i64
  %172 = getelementptr inbounds [100 x %struct.person], [100 x %struct.person]* @per, i64 0, i64 %171
  %173 = getelementptr inbounds %struct.person, %struct.person* %172, i32 0, i32 0
  %174 = getelementptr inbounds [10 x i8], [10 x i8]* %173, i64 0, i64 0
  %175 = call i8* @strcpy(i8* %169, i8* %174) #4
  %176 = load i32, i32* %5, align 4
  %177 = add nsw i32 %176, 1
  store i32 %177, i32* %5, align 4
  %178 = load i32, i32* %7, align 4
  %179 = add nsw i32 %178, 1
  store i32 %179, i32* %7, align 4
  br label %180

180:                                              ; preds = %157, %150
  br label %181

181:                                              ; preds = %180
  %182 = load i32, i32* %2, align 4
  %183 = add nsw i32 %182, 1
  store i32 %183, i32* %2, align 4
  br label %146

184:                                              ; preds = %146
  store i32 0, i32* %5, align 4
  br label %185

185:                                              ; preds = %196, %184
  %186 = load i32, i32* %5, align 4
  %187 = load i32, i32* %7, align 4
  %188 = sub nsw i32 %187, 1
  %189 = icmp slt i32 %186, %188
  br i1 %189, label %190, label %199

190:                                              ; preds = %185
  %191 = load i32, i32* %5, align 4
  %192 = sext i32 %191 to i64
  %193 = getelementptr inbounds [100 x [10 x i8]], [100 x [10 x i8]]* %9, i64 0, i64 %192
  %194 = getelementptr inbounds [10 x i8], [10 x i8]* %193, i64 0, i64 0
  %195 = call i32 (i8*, ...) @printf(i8* getelementptr inbounds ([4 x i8], [4 x i8]* @.str.2, i64 0, i64 0), i8* %194)
  br label %196

196:                                              ; preds = %190
  %197 = load i32, i32* %5, align 4
  %198 = add nsw i32 %197, 1
  store i32 %198, i32* %5, align 4
  br label %185

199:                                              ; preds = %185
  %200 = load i32, i32* %7, align 4
  %201 = sub nsw i32 %200, 1
  %202 = sext i32 %201 to i64
  %203 = getelementptr inbounds [100 x [10 x i8]], [100 x [10 x i8]]* %9, i64 0, i64 %202
  %204 = getelementptr inbounds [10 x i8], [10 x i8]* %203, i64 0, i64 0
  %205 = call i32 (i8*, ...) @printf(i8* getelementptr inbounds ([3 x i8], [3 x i8]* @.str.3, i64 0, i64 0), i8* %204)
  %206 = load i32, i32* %1, align 4
  ret i32 %206
}

; Function Attrs: argmemonly nounwind willreturn
declare void @llvm.memset.p0i8.i64(i8* nocapture writeonly, i8, i64, i1 immarg) #1

declare dso_local i32 @__isoc99_scanf(i8*, ...) #2

; Function Attrs: nounwind
declare dso_local i8* @strcpy(i8*, i8*) #3

declare dso_local i32 @printf(i8*, ...) #2


!llvm.module.flags = !{!0}
!llvm.ident = !{!1}

!0 = !{i32 1, !"wchar_size", i32 4}
!1 = !{!"clang version 10.0.0-4ubuntu1 "}
